target datalayout = "e-m:e-p270:32:32-p271:32:32-p272:64:64-i64:64-i128:128-f80:128-n8:16:32:64-S128"
target triple = "x86_64-pc-linux-gnu"

%class.grpc_ssl_credentials = type <{ %struct.grpc_channel_credentials, %struct.grpc_ssl_config, ptr, ptr, i32, [4 x i8] }>
%struct.grpc_channel_credentials = type { %"class.grpc_core::RefCounted" }
%"class.grpc_core::RefCounted" = type { %"class.grpc_core::PolymorphicRefCount", %"class.grpc_core::RefCount" }
%"class.grpc_core::PolymorphicRefCount" = type { ptr }
%"class.grpc_core::RefCount" = type { %"struct.std::atomic" }
%"struct.std::atomic" = type { %"struct.std::__atomic_base" }
%"struct.std::__atomic_base" = type { i64 }
%struct.grpc_ssl_config = type { ptr, ptr, %struct.verify_peer_options, i32, i32 }
%struct.verify_peer_options = type { ptr, ptr, ptr }

; Function Attrs: mustprogress nounwind uwtable
define linkonce_odr void @_ZN9grpc_core19PolymorphicRefCountD2Ev(ptr noundef nonnull align 8 dereferenceable(8) %0) unnamed_addr #8 comdat align 2 {
  %2 = alloca ptr, align 8
  store ptr %0, ptr %2, align 8, !tbaa !201
  ret void
}

; Function Attrs: mustprogress nounwind uwtable
define void @_ZN20grpc_ssl_credentialsD2Ev(ptr noundef nonnull align 8 dereferenceable(84) %0) unnamed_addr #8 align 2 personality ptr @__gxx_personality_v0 {
  %2 = alloca ptr, align 8
  store ptr %0, ptr %2, align 8, !tbaa !3
  %3 = load ptr, ptr %2, align 8
  store ptr getelementptr inbounds inrange(-16, 56) ({ [9 x ptr] }, ptr @_ZTV20grpc_ssl_credentials, i32 0, i32 0, i32 2), ptr %3, align 8, !tbaa !11
  %4 = getelementptr inbounds nuw %class.grpc_ssl_credentials, ptr %3, i32 0, i32 1
  %5 = getelementptr inbounds nuw %struct.grpc_ssl_config, ptr %4, i32 0, i32 1
  %6 = load ptr, ptr %5, align 8, !tbaa !30
  invoke void @gpr_free(ptr noundef %6)
          to label %7 unwind label %31

7:                                                ; preds = %1
  %8 = getelementptr inbounds nuw %class.grpc_ssl_credentials, ptr %3, i32 0, i32 1
  %9 = getelementptr inbounds nuw %struct.grpc_ssl_config, ptr %8, i32 0, i32 0
  %10 = load ptr, ptr %9, align 8, !tbaa !42
  invoke void @_Z39grpc_tsi_ssl_pem_key_cert_pairs_destroyP25tsi_ssl_pem_key_cert_pairm(ptr noundef %10, i64 noundef 1)
          to label %11 unwind label %31

11:                                               ; preds = %7
  %12 = getelementptr inbounds nuw %class.grpc_ssl_credentials, ptr %3, i32 0, i32 1
  %13 = getelementptr inbounds nuw %struct.grpc_ssl_config, ptr %12, i32 0, i32 2
  %14 = getelementptr inbounds nuw %struct.verify_peer_options, ptr %13, i32 0, i32 2
  %15 = load ptr, ptr %14, align 8, !tbaa !83
  %16 = icmp ne ptr %15, null
  br i1 %16, label %17, label %27

17:                                               ; preds = %11
  %18 = getelementptr inbounds nuw %class.grpc_ssl_credentials, ptr %3, i32 0, i32 1
  %19 = getelementptr inbounds nuw %struct.grpc_ssl_config, ptr %18, i32 0, i32 2
  %20 = getelementptr inbounds nuw %struct.verify_peer_options, ptr %19, i32 0, i32 2
  %21 = load ptr, ptr %20, align 8, !tbaa !83
  %22 = getelementptr inbounds nuw %class.grpc_ssl_credentials, ptr %3, i32 0, i32 1
  %23 = getelementptr inbounds nuw %struct.grpc_ssl_config, ptr %22, i32 0, i32 2
  %24 = getelementptr inbounds nuw %struct.verify_peer_options, ptr %23, i32 0, i32 1
  %25 = load ptr, ptr %24, align 8, !tbaa !84
  invoke void %21(ptr noundef %25)
          to label %26 unwind label %31

26:                                               ; preds = %17
  br label %27

27:                                               ; preds = %26, %11
  %28 = getelementptr inbounds nuw %class.grpc_ssl_credentials, ptr %3, i32 0, i32 2
  %29 = load ptr, ptr %28, align 8, !tbaa !13
  invoke void @_Z39tsi_ssl_client_handshaker_factory_unrefP33tsi_ssl_client_handshaker_factory(ptr noundef %29)
          to label %30 unwind label %31

30:                                               ; preds = %27
  call void @_ZN9grpc_core19PolymorphicRefCountD2Ev(ptr noundef nonnull align 8 dereferenceable(16) %3) #3
  ret void

31:                                               ; preds = %27, %17, %7, %1
  %32 = landingpad { ptr, i32 }
          catch ptr null
  %33 = extractvalue { ptr, i32 } %32, 0
  call void @__clang_call_terminate(ptr %33) #26
  unreachable
}