; Function Attrs: mustprogress nounwind uwtable
define void @_ZN20grpc_ssl_credentialsD2Ev(ptr noundef nonnull align 8 captures(none) dereferenceable(84) initializes((0, 8)) %0) unnamed_addr #7 align 2 personality ptr @__gxx_personality_v0 {
  store ptr getelementptr inbounds nuw inrange(-16, 56) (i8, ptr @_ZTV20grpc_ssl_credentials, i64 16), ptr %0, align 8, !tbaa !8
  %2 = getelementptr inbounds nuw i8, ptr %0, i64 24
  %3 = load ptr, ptr %2, align 8, !tbaa !18
  invoke void @gpr_free(ptr noundef %3)
          to label %4 unwind label %17

4:                                                ; preds = %1
  %5 = getelementptr inbounds nuw i8, ptr %0, i64 16
  %6 = load ptr, ptr %5, align 8, !tbaa !36
  invoke void @_Z39grpc_tsi_ssl_pem_key_cert_pairs_destroyP25tsi_ssl_pem_key_cert_pairm(ptr noundef %6, i64 noundef 1)
          to label %7 unwind label %17

7:                                                ; preds = %4
  %8 = getelementptr inbounds nuw i8, ptr %0, i64 48
  %9 = load ptr, ptr %8, align 8, !tbaa !72
  %.not = icmp eq ptr %9, null
  br i1 %.not, label %13, label %10

10:                                               ; preds = %7
  %11 = getelementptr inbounds nuw i8, ptr %0, i64 40
  %12 = load ptr, ptr %11, align 8, !tbaa !73
  invoke void %9(ptr noundef %12)
          to label %13 unwind label %17

13:                                               ; preds = %10, %7
  %14 = getelementptr inbounds nuw i8, ptr %0, i64 64
  %15 = load ptr, ptr %14, align 8, !tbaa !43
  invoke void @_Z39tsi_ssl_client_handshaker_factory_unrefP33tsi_ssl_client_handshaker_factory(ptr noundef %15)
          to label %16 unwind label %17

16:                                               ; preds = %13
  ret void

17:                                               ; preds = %13, %10, %4, %1
  %18 = landingpad { ptr, i32 }
          catch ptr null
  %19 = extractvalue { ptr, i32 } %18, 0
  tail call void @__clang_call_terminate(ptr %19) #31
  unreachable
}